target datalayout = "e-m:e-p270:32:32-p271:32:32-p272:64:64-i64:64-i128:128-f80:128-n8:16:32:64-S128"
target triple = "x86_64-pc-linux-gnu"

%union.pthread_mutex_t = type { %struct.__pthread_mutex_s }
%struct.__pthread_mutex_s = type { i32, i32, i32, i32, i32, i16, i16, %struct.__pthread_internal_list }
%struct.__pthread_internal_list = type { ptr, ptr }
%struct.settings = type { i64, i32, i32, i32, ptr, i32, i32, i32, ptr, ptr, i32, double, i32, i32, i32, i8, i32, i32, i8, i32, i32, i32, i32, i32, i32, i8, i8, i8, i8, i8, i8, i8, i32, i32, double, double, i32, i32, i8, i32, i8, i8, ptr, i32, i32, i32, i32, double, double, i32, i8, i32, i32, i32, i32, i32, i8, i8, i8, ptr, i32, i32, i32, i32, i32, i32, i32, i32, i32, i32, double, i8, i32, i32, ptr, i32 }
%struct._stritem = type { ptr, ptr, ptr, i32, i32, i32, i16, i16, i8, i8, [0 x %union.anon] }
%union.anon = type { i64 }

@lru_locks = external global [256 x %union.pthread_mutex_t], align 16
@settings = external global %struct.settings, align 8
@hash = external global ptr, align 8
@heads = internal global [256 x ptr] zeroinitializer, align 16
@ext_storage = external global ptr, align 8

; Function Attrs: nounwind uwtable
define dso_local void @item_flush_expired() #0 {
  %1 = alloca i32, align 4
  %2 = alloca ptr, align 8
  %3 = alloca ptr, align 8
  %4 = alloca i32, align 4
  %5 = alloca ptr, align 8
  %6 = alloca i32, align 4
  call void @llvm.lifetime.start.p0(i64 4, ptr %1) #9
  call void @llvm.lifetime.start.p0(i64 8, ptr %2) #9
  call void @llvm.lifetime.start.p0(i64 8, ptr %3) #9
  %7 = load i32, ptr getelementptr inbounds nuw (%struct.settings, ptr @settings, i32 0, i32 6), align 4, !tbaa !19
  %8 = icmp eq i32 %7, 0
  br i1 %8, label %9, label %10

9:                                                ; preds = %0
  store i32 1, ptr %4, align 4
  br label %124

10:                                               ; preds = %0
  store i32 0, ptr %1, align 4, !tbaa !4
  br label %11

11:                                               ; preds = %120, %10
  %12 = load i32, ptr %1, align 4, !tbaa !4
  %13 = icmp slt i32 %12, 256
  br i1 %13, label %14, label %123

14:                                               ; preds = %11
  %15 = load i32, ptr %1, align 4, !tbaa !4
  %16 = sext i32 %15 to i64
  %17 = getelementptr inbounds [256 x %union.pthread_mutex_t], ptr @lru_locks, i64 0, i64 %16
  %18 = call i32 @pthread_mutex_lock(ptr noundef %17) #9
  %19 = load i32, ptr %1, align 4, !tbaa !4
  %20 = sext i32 %19 to i64
  %21 = getelementptr inbounds [256 x ptr], ptr @heads, i64 0, i64 %20
  %22 = load ptr, ptr %21, align 8, !tbaa !16
  store ptr %22, ptr %2, align 8, !tbaa !16
  br label %23

23:                                               ; preds = %113, %14
  %24 = load ptr, ptr %2, align 8, !tbaa !16
  %25 = icmp ne ptr %24, null
  br i1 %25, label %26, label %115

26:                                               ; preds = %23
  call void @llvm.lifetime.start.p0(i64 8, ptr %5) #9
  store ptr null, ptr %5, align 8, !tbaa !33
  %27 = load ptr, ptr %2, align 8, !tbaa !16
  %28 = getelementptr inbounds nuw %struct._stritem, ptr %27, i32 0, i32 0
  %29 = load ptr, ptr %28, align 8, !tbaa !16
  store ptr %29, ptr %3, align 8, !tbaa !16
  %30 = load ptr, ptr %2, align 8, !tbaa !16
  %31 = getelementptr inbounds nuw %struct._stritem, ptr %30, i32 0, i32 3
  %32 = load i32, ptr %31, align 8, !tbaa !4
  %33 = icmp eq i32 %32, 0
  br i1 %33, label %34, label %47

34:                                               ; preds = %26
  %35 = load ptr, ptr %2, align 8, !tbaa !16
  %36 = getelementptr inbounds nuw %struct._stritem, ptr %35, i32 0, i32 9
  %37 = load i8, ptr %36, align 1, !tbaa !30
  %38 = zext i8 %37 to i32
  %39 = icmp eq i32 %38, 0
  br i1 %39, label %40, label %47

40:                                               ; preds = %34
  %41 = load ptr, ptr %2, align 8, !tbaa !16
  %42 = getelementptr inbounds nuw %struct._stritem, ptr %41, i32 0, i32 7
  %43 = load i16, ptr %42, align 2, !tbaa !34
  %44 = zext i16 %43 to i32
  %45 = icmp eq i32 %44, 1
  br i1 %45, label %46, label %47

46:                                               ; preds = %40
  store i32 7, ptr %4, align 4
  br label %110

47:                                               ; preds = %40, %34, %26
  call void @llvm.lifetime.start.p0(i64 4, ptr %6) #9
  %48 = load ptr, ptr @hash, align 8, !tbaa !33
  %49 = load ptr, ptr %2, align 8, !tbaa !16
  %50 = getelementptr inbounds nuw %struct._stritem, ptr %49, i32 0, i32 10
  %51 = load ptr, ptr %2, align 8, !tbaa !16
  %52 = getelementptr inbounds nuw %struct._stritem, ptr %51, i32 0, i32 7
  %53 = load i16, ptr %52, align 2, !tbaa !34
  %54 = zext i16 %53 to i32
  %55 = and i32 %54, 2
  %56 = icmp ne i32 %55, 0
  %57 = select i1 %56, i64 8, i64 0
  %58 = getelementptr inbounds nuw i8, ptr %50, i64 %57
  %59 = load ptr, ptr %2, align 8, !tbaa !16
  %60 = getelementptr inbounds nuw %struct._stritem, ptr %59, i32 0, i32 9
  %61 = load i8, ptr %60, align 1, !tbaa !30
  %62 = zext i8 %61 to i64
  %63 = call i32 %48(ptr noundef %58, i64 noundef %62)
  store i32 %63, ptr %6, align 4, !tbaa !4
  %64 = load i32, ptr %6, align 4, !tbaa !4
  %65 = call ptr @item_trylock(i32 noundef %64)
  store ptr %65, ptr %5, align 8, !tbaa !33
  %66 = icmp eq ptr %65, null
  br i1 %66, label %67, label %68

67:                                               ; preds = %47
  store i32 7, ptr %4, align 4
  br label %109

68:                                               ; preds = %47
  %69 = load ptr, ptr %2, align 8, !tbaa !16
  %70 = getelementptr inbounds nuw %struct._stritem, ptr %69, i32 0, i32 3
  %71 = load i32, ptr %70, align 8, !tbaa !4
  %72 = load i32, ptr getelementptr inbounds nuw (%struct.settings, ptr @settings, i32 0, i32 6), align 4, !tbaa !19
  %73 = icmp uge i32 %71, %72
  br i1 %73, label %74, label %106

74:                                               ; preds = %68
  %75 = load ptr, ptr %2, align 8, !tbaa !16
  %76 = getelementptr inbounds nuw %struct._stritem, ptr %75, i32 0, i32 7
  %77 = load i16, ptr %76, align 2, !tbaa !34
  %78 = zext i16 %77 to i32
  %79 = and i32 %78, 4
  %80 = icmp eq i32 %79, 0
  br i1 %80, label %81, label %104

81:                                               ; preds = %74
  br label %82

82:                                               ; preds = %81
  %83 = load ptr, ptr @ext_storage, align 8, !tbaa !33
  %84 = load ptr, ptr %2, align 8, !tbaa !16
  call void @storage_delete(ptr noundef %83, ptr noundef %84)
  br label %85

85:                                               ; preds = %82
  br label %86

86:                                               ; preds = %85
  %87 = load ptr, ptr %2, align 8, !tbaa !16
  %88 = load ptr, ptr @hash, align 8, !tbaa !33
  %89 = load ptr, ptr %2, align 8, !tbaa !16
  %90 = getelementptr inbounds nuw %struct._stritem, ptr %89, i32 0, i32 10
  %91 = load ptr, ptr %2, align 8, !tbaa !16
  %92 = getelementptr inbounds nuw %struct._stritem, ptr %91, i32 0, i32 7
  %93 = load i16, ptr %92, align 2, !tbaa !34
  %94 = zext i16 %93 to i32
  %95 = and i32 %94, 2
  %96 = icmp ne i32 %95, 0
  %97 = select i1 %96, i64 8, i64 0
  %98 = getelementptr inbounds nuw i8, ptr %90, i64 %97
  %99 = load ptr, ptr %2, align 8, !tbaa !16
  %100 = getelementptr inbounds nuw %struct._stritem, ptr %99, i32 0, i32 9
  %101 = load i8, ptr %100, align 1, !tbaa !30
  %102 = zext i8 %101 to i64
  %103 = call i32 %88(ptr noundef %98, i64 noundef %102)
  call void @do_item_unlink_nolock(ptr noundef %87, i32 noundef %103)
  br label %104

104:                                              ; preds = %86, %74
  %105 = load ptr, ptr %5, align 8, !tbaa !33
  call void @item_trylock_unlock(ptr noundef %105)
  br label %108

106:                                              ; preds = %68
  %107 = load ptr, ptr %5, align 8, !tbaa !33
  call void @item_trylock_unlock(ptr noundef %107)
  store i32 5, ptr %4, align 4
  br label %109

108:                                              ; preds = %104
  store i32 0, ptr %4, align 4
  br label %109

109:                                              ; preds = %108, %106, %67
  call void @llvm.lifetime.end.p0(i64 4, ptr %6) #9
  br label %110

110:                                              ; preds = %109, %46
  call void @llvm.lifetime.end.p0(i64 8, ptr %5) #9
  %111 = load i32, ptr %4, align 4
  switch i32 %111, label %127 [
    i32 0, label %112
    i32 7, label %113
    i32 5, label %115
  ]

112:                                              ; preds = %110
  br label %113

113:                                              ; preds = %112, %110
  %114 = load ptr, ptr %3, align 8, !tbaa !16
  store ptr %114, ptr %2, align 8, !tbaa !16
  br label %23, !llvm.loop !81

115:                                              ; preds = %110, %23
  %116 = load i32, ptr %1, align 4, !tbaa !4
  %117 = sext i32 %116 to i64
  %118 = getelementptr inbounds [256 x %union.pthread_mutex_t], ptr @lru_locks, i64 0, i64 %117
  %119 = call i32 @pthread_mutex_unlock(ptr noundef %118) #9
  br label %120

120:                                              ; preds = %115
  %121 = load i32, ptr %1, align 4, !tbaa !4
  %122 = add nsw i32 %121, 1
  store i32 %122, ptr %1, align 4, !tbaa !4
  br label %11, !llvm.loop !82

123:                                              ; preds = %11
  store i32 0, ptr %4, align 4
  br label %124

124:                                              ; preds = %123, %9
  call void @llvm.lifetime.end.p0(i64 8, ptr %3) #9
  call void @llvm.lifetime.end.p0(i64 8, ptr %2) #9
  call void @llvm.lifetime.end.p0(i64 4, ptr %1) #9
  %125 = load i32, ptr %4, align 4
  switch i32 %125, label %127 [
    i32 0, label %126
    i32 1, label %126
  ]

126:                                              ; preds = %124, %124
  ret void

127:                                              ; preds = %124, %110
  unreachable
}