; Function Attrs: nounwind uwtable
define dso_local void @item_flush_expired() local_unnamed_addr #0 {
  %1 = load i32, ptr getelementptr inbounds nuw (i8, ptr @settings, i64 36), align 4, !tbaa !15
  %2 = icmp eq i32 %1, 0
  br i1 %2, label %.loopexit33, label %.preheader

.preheader:                                       ; preds = %0, %.loopexit
  %indvars.iv = phi i64 [ %indvars.iv.next, %.loopexit ], [ 0, %0 ]
  %3 = getelementptr inbounds nuw [256 x %union.pthread_mutex_t], ptr @lru_locks, i64 0, i64 %indvars.iv
  %4 = tail call i32 @pthread_mutex_lock(ptr noundef nonnull %3) #19
  %5 = getelementptr inbounds nuw [256 x ptr], ptr @heads, i64 0, i64 %indvars.iv
  %6 = load ptr, ptr %5, align 8, !tbaa !28
  %.not34 = icmp eq ptr %6, null
  br i1 %.not34, label %.loopexit, label %.lr.ph

.lr.ph:                                           ; preds = %.preheader, %51
  %.02535 = phi ptr [ %7, %51 ], [ %6, %.preheader ]
  %7 = load ptr, ptr %.02535, align 8, !tbaa !28
  %8 = getelementptr inbounds nuw i8, ptr %.02535, i64 24
  %9 = load i32, ptr %8, align 8, !tbaa !22
  %10 = icmp eq i32 %9, 0
  %11 = getelementptr inbounds nuw i8, ptr %.02535, i64 41
  %12 = load i8, ptr %11, align 1, !tbaa !30
  %13 = icmp eq i8 %12, 0
  %or.cond = select i1 %10, i1 %13, i1 false
  br i1 %or.cond, label %14, label %.lr.ph._crit_edge

14:                                               ; preds = %.lr.ph
  %15 = getelementptr inbounds nuw i8, ptr %.02535, i64 38
  %16 = load i16, ptr %15, align 2, !tbaa !31
  %17 = icmp eq i16 %16, 1
  br i1 %17, label %51, label %.lr.ph._crit_edge

.lr.ph._crit_edge:                                ; preds = %.lr.ph, %14
  %18 = phi i8 [ 0, %14 ], [ %12, %.lr.ph ]
  %19 = load ptr, ptr @hash, align 8, !tbaa !33
  %20 = getelementptr inbounds nuw i8, ptr %.02535, i64 48
  %21 = getelementptr inbounds nuw i8, ptr %.02535, i64 38
  %22 = load i16, ptr %21, align 2, !tbaa !31
  %23 = shl i16 %22, 2
  %24 = and i16 %23, 8
  %25 = zext nneg i16 %24 to i64
  %26 = getelementptr inbounds nuw i8, ptr %20, i64 %25
  %27 = getelementptr inbounds nuw i8, ptr %.02535, i64 41
  %28 = zext i8 %18 to i64
  %29 = tail call i32 %19(ptr noundef nonnull %26, i64 noundef %28) #19
  %30 = tail call ptr @item_trylock(i32 noundef %29) #19
  %31 = icmp eq ptr %30, null
  br i1 %31, label %51, label %32

32:                                               ; preds = %.lr.ph._crit_edge
  %33 = load i32, ptr %8, align 8, !tbaa !22
  %34 = load i32, ptr getelementptr inbounds nuw (i8, ptr @settings, i64 36), align 4, !tbaa !15
  %.not28 = icmp ult i32 %33, %34
  br i1 %.not28, label %.thread, label %35

35:                                               ; preds = %32
  %36 = load i16, ptr %21, align 2, !tbaa !31
  %37 = and i16 %36, 4
  %38 = icmp eq i16 %37, 0
  br i1 %38, label %39, label %50

39:                                               ; preds = %35
  %40 = load ptr, ptr @ext_storage, align 8, !tbaa !33
  tail call void @storage_delete(ptr noundef %40, ptr noundef nonnull %.02535) #19
  %41 = load ptr, ptr @hash, align 8, !tbaa !33
  %42 = load i16, ptr %21, align 2, !tbaa !31
  %43 = shl i16 %42, 2
  %44 = and i16 %43, 8
  %45 = zext nneg i16 %44 to i64
  %46 = getelementptr inbounds nuw i8, ptr %20, i64 %45
  %47 = load i8, ptr %27, align 1, !tbaa !30
  %48 = zext i8 %47 to i64
  %49 = tail call i32 %41(ptr noundef nonnull %46, i64 noundef %48) #19
  tail call void @do_item_unlink_nolock(ptr noundef nonnull %.02535, i32 noundef %49)
  br label %50

50:                                               ; preds = %39, %35
  tail call void @item_trylock_unlock(ptr noundef nonnull %30) #19
  br label %51

.thread:                                          ; preds = %32
  tail call void @item_trylock_unlock(ptr noundef nonnull %30) #19
  br label %.loopexit

51:                                               ; preds = %50, %.lr.ph._crit_edge, %14
  %.not = icmp eq ptr %7, null
  br i1 %.not, label %.loopexit, label %.lr.ph

.loopexit:                                        ; preds = %51, %.preheader, %.thread
  %52 = tail call i32 @pthread_mutex_unlock(ptr noundef nonnull %3) #19
  %indvars.iv.next = add nuw nsw i64 %indvars.iv, 1
  %exitcond.not = icmp eq i64 %indvars.iv.next, 256
  br i1 %exitcond.not, label %.loopexit33, label %.preheader, !llvm.loop !75

.loopexit33:                                      ; preds = %.loopexit, %0
  ret void
}